; Function Attrs: nounwind uwtable
define nonnull ptr @l___private_Lean_Compiler_IR_RC_0__Lean_IR_ExplicitRC_isPersistent___boxed(ptr noundef %0) local_unnamed_addr #0 {
  %2 = ptrtoint ptr %0 to i64
  %3 = and i64 %2, 1
  %.not.i.i = icmp eq i64 %3, 0
  br i1 %.not.i.i, label %7, label %4

4:                                                ; preds = %1
  %5 = lshr i64 %2, 1
  %6 = trunc i64 %5 to i32
  br label %lean_obj_tag.exit.i

7:                                                ; preds = %1
  %8 = getelementptr i8, ptr %0, i64 4
  %.val.i.i = load i32, ptr %8, align 4
  %9 = lshr i32 %.val.i.i, 24
  br label %lean_obj_tag.exit.i

lean_obj_tag.exit.i:                              ; preds = %7, %4
  %.0.i.i = phi i32 [ %6, %4 ], [ %9, %7 ]
  %10 = icmp eq i32 %.0.i.i, 6
  br i1 %10, label %11, label %l___private_Lean_Compiler_IR_RC_0__Lean_IR_ExplicitRC_isPersistent.exit

11:                                               ; preds = %lean_obj_tag.exit.i
  %12 = getelementptr inbounds nuw i8, ptr %0, i64 16
  %13 = load ptr, ptr %12, align 8, !tbaa !4
  %14 = tail call zeroext i8 @l_Array_isEmpty___rarg(ptr noundef %13) #6
  %15 = zext i8 %14 to i64
  %16 = shl nuw nsw i64 %15, 1
  %17 = or disjoint i64 %16, 1
  br label %l___private_Lean_Compiler_IR_RC_0__Lean_IR_ExplicitRC_isPersistent.exit

l___private_Lean_Compiler_IR_RC_0__Lean_IR_ExplicitRC_isPersistent.exit: ; preds = %lean_obj_tag.exit.i, %11
  %.0.i = phi i64 [ %17, %11 ], [ 1, %lean_obj_tag.exit.i ]
  br i1 %.not.i.i, label %18, label %lean_dec.exit

18:                                               ; preds = %l___private_Lean_Compiler_IR_RC_0__Lean_IR_ExplicitRC_isPersistent.exit
  %19 = load i32, ptr %0, align 4, !tbaa !8
  %20 = icmp sgt i32 %19, 1
  br i1 %20, label %21, label %23, !prof !11

21:                                               ; preds = %18
  %22 = add nsw i32 %19, -1
  store i32 %22, ptr %0, align 4, !tbaa !8
  br label %lean_dec.exit

23:                                               ; preds = %18
  %.not.i = icmp eq i32 %19, 0
  br i1 %.not.i, label %lean_dec.exit, label %24

24:                                               ; preds = %23
  tail call void @lean_dec_ref_cold(ptr noundef nonnull %0) #6
  br label %lean_dec.exit

lean_dec.exit:                                    ; preds = %24, %23, %21, %l___private_Lean_Compiler_IR_RC_0__Lean_IR_ExplicitRC_isPersistent.exit
  %25 = inttoptr i64 %.0.i to ptr
  ret ptr %25
}